
./atomic:     file format elf64-x86-64


Disassembly of section .init:

00000000004003f0 <_init>:
  4003f0:	48 83 ec 08          	sub    rsp,0x8
  4003f4:	48 8b 05 fd 0b 20 00 	mov    rax,QWORD PTR [rip+0x200bfd]        # 600ff8 <_DYNAMIC+0x1d0>
  4003fb:	48 85 c0             	test   rax,rax
  4003fe:	74 05                	je     400405 <_init+0x15>
  400400:	e8 3b 00 00 00       	call   400440 <__libc_start_main@plt+0x10>
  400405:	48 83 c4 08          	add    rsp,0x8
  400409:	c3                   	ret    

Disassembly of section .plt:

0000000000400410 <__stack_chk_fail@plt-0x10>:
  400410:	ff 35 f2 0b 20 00    	push   QWORD PTR [rip+0x200bf2]        # 601008 <_GLOBAL_OFFSET_TABLE_+0x8>
  400416:	ff 25 f4 0b 20 00    	jmp    QWORD PTR [rip+0x200bf4]        # 601010 <_GLOBAL_OFFSET_TABLE_+0x10>
  40041c:	0f 1f 40 00          	nop    DWORD PTR [rax+0x0]

0000000000400420 <__stack_chk_fail@plt>:
  400420:	ff 25 f2 0b 20 00    	jmp    QWORD PTR [rip+0x200bf2]        # 601018 <_GLOBAL_OFFSET_TABLE_+0x18>
  400426:	68 00 00 00 00       	push   0x0
  40042b:	e9 e0 ff ff ff       	jmp    400410 <_init+0x20>

0000000000400430 <__libc_start_main@plt>:
  400430:	ff 25 ea 0b 20 00    	jmp    QWORD PTR [rip+0x200bea]        # 601020 <_GLOBAL_OFFSET_TABLE_+0x20>
  400436:	68 01 00 00 00       	push   0x1
  40043b:	e9 d0 ff ff ff       	jmp    400410 <_init+0x20>

Disassembly of section .plt.got:

0000000000400440 <.plt.got>:
  400440:	ff 25 b2 0b 20 00    	jmp    QWORD PTR [rip+0x200bb2]        # 600ff8 <_DYNAMIC+0x1d0>
  400446:	66 90                	xchg   ax,ax

Disassembly of section .text:

0000000000400450 <_start>:
  400450:	31 ed                	xor    ebp,ebp
  400452:	49 89 d1             	mov    r9,rdx
  400455:	5e                   	pop    rsi
  400456:	48 89 e2             	mov    rdx,rsp
  400459:	48 83 e4 f0          	and    rsp,0xfffffffffffffff0
  40045d:	50                   	push   rax
  40045e:	54                   	push   rsp
  40045f:	49 c7 c0 80 07 40 00 	mov    r8,0x400780
  400466:	48 c7 c1 10 07 40 00 	mov    rcx,0x400710
  40046d:	48 c7 c7 46 05 40 00 	mov    rdi,0x400546
  400474:	e8 b7 ff ff ff       	call   400430 <__libc_start_main@plt>
  400479:	f4                   	hlt    
  40047a:	66 0f 1f 44 00 00    	nop    WORD PTR [rax+rax*1+0x0]

0000000000400480 <deregister_tm_clones>:
  400480:	b8 3f 10 60 00       	mov    eax,0x60103f
  400485:	55                   	push   rbp
  400486:	48 2d 38 10 60 00    	sub    rax,0x601038
  40048c:	48 83 f8 0e          	cmp    rax,0xe
  400490:	48 89 e5             	mov    rbp,rsp
  400493:	76 1b                	jbe    4004b0 <deregister_tm_clones+0x30>
  400495:	b8 00 00 00 00       	mov    eax,0x0
  40049a:	48 85 c0             	test   rax,rax
  40049d:	74 11                	je     4004b0 <deregister_tm_clones+0x30>
  40049f:	5d                   	pop    rbp
  4004a0:	bf 38 10 60 00       	mov    edi,0x601038
  4004a5:	ff e0                	jmp    rax
  4004a7:	66 0f 1f 84 00 00 00 	nop    WORD PTR [rax+rax*1+0x0]
  4004ae:	00 00 
  4004b0:	5d                   	pop    rbp
  4004b1:	c3                   	ret    
  4004b2:	0f 1f 40 00          	nop    DWORD PTR [rax+0x0]
  4004b6:	66 2e 0f 1f 84 00 00 	nop    WORD PTR cs:[rax+rax*1+0x0]
  4004bd:	00 00 00 

00000000004004c0 <register_tm_clones>:
  4004c0:	be 38 10 60 00       	mov    esi,0x601038
  4004c5:	55                   	push   rbp
  4004c6:	48 81 ee 38 10 60 00 	sub    rsi,0x601038
  4004cd:	48 c1 fe 03          	sar    rsi,0x3
  4004d1:	48 89 e5             	mov    rbp,rsp
  4004d4:	48 89 f0             	mov    rax,rsi
  4004d7:	48 c1 e8 3f          	shr    rax,0x3f
  4004db:	48 01 c6             	add    rsi,rax
  4004de:	48 d1 fe             	sar    rsi,1
  4004e1:	74 15                	je     4004f8 <register_tm_clones+0x38>
  4004e3:	b8 00 00 00 00       	mov    eax,0x0
  4004e8:	48 85 c0             	test   rax,rax
  4004eb:	74 0b                	je     4004f8 <register_tm_clones+0x38>
  4004ed:	5d                   	pop    rbp
  4004ee:	bf 38 10 60 00       	mov    edi,0x601038
  4004f3:	ff e0                	jmp    rax
  4004f5:	0f 1f 00             	nop    DWORD PTR [rax]
  4004f8:	5d                   	pop    rbp
  4004f9:	c3                   	ret    
  4004fa:	66 0f 1f 44 00 00    	nop    WORD PTR [rax+rax*1+0x0]

0000000000400500 <__do_global_dtors_aux>:
  400500:	80 3d 31 0b 20 00 00 	cmp    BYTE PTR [rip+0x200b31],0x0        # 601038 <__TMC_END__>
  400507:	75 11                	jne    40051a <__do_global_dtors_aux+0x1a>
  400509:	55                   	push   rbp
  40050a:	48 89 e5             	mov    rbp,rsp
  40050d:	e8 6e ff ff ff       	call   400480 <deregister_tm_clones>
  400512:	5d                   	pop    rbp
  400513:	c6 05 1e 0b 20 00 01 	mov    BYTE PTR [rip+0x200b1e],0x1        # 601038 <__TMC_END__>
  40051a:	f3 c3                	repz ret 
  40051c:	0f 1f 40 00          	nop    DWORD PTR [rax+0x0]

0000000000400520 <frame_dummy>:
  400520:	bf 20 0e 60 00       	mov    edi,0x600e20
  400525:	48 83 3f 00          	cmp    QWORD PTR [rdi],0x0
  400529:	75 05                	jne    400530 <frame_dummy+0x10>
  40052b:	eb 93                	jmp    4004c0 <register_tm_clones>
  40052d:	0f 1f 00             	nop    DWORD PTR [rax]
  400530:	b8 00 00 00 00       	mov    eax,0x0
  400535:	48 85 c0             	test   rax,rax
  400538:	74 f1                	je     40052b <frame_dummy+0xb>
  40053a:	55                   	push   rbp
  40053b:	48 89 e5             	mov    rbp,rsp
  40053e:	ff d0                	call   rax
  400540:	5d                   	pop    rbp
  400541:	e9 7a ff ff ff       	jmp    4004c0 <register_tm_clones>

0000000000400546 <main>:
#include <atomic>

int main(int rand, char * argv[]){
  400546:	55                   	push   rbp
  400547:	48 89 e5             	mov    rbp,rsp
  40054a:	48 83 ec 70          	sub    rsp,0x70
  40054e:	89 7d 9c             	mov    DWORD PTR [rbp-0x64],edi
  400551:	48 89 75 90          	mov    QWORD PTR [rbp-0x70],rsi
  400555:	64 48 8b 04 25 28 00 	mov    rax,QWORD PTR fs:0x28
  40055c:	00 00 
  40055e:	48 89 45 f8          	mov    QWORD PTR [rbp-0x8],rax
  400562:	31 c0                	xor    eax,eax
	std::atomic<int> atomic;
  400564:	48 8d 45 a0          	lea    rax,[rbp-0x60]
  400568:	48 89 c7             	mov    rdi,rax
  40056b:	e8 7a 01 00 00       	call   4006ea <std::atomic<int>::atomic()>
  400570:	8b 45 9c             	mov    eax,DWORD PTR [rbp-0x64]
  400573:	89 45 b0             	mov    DWORD PTR [rbp-0x50],eax
  400576:	c7 45 e0 05 00 00 00 	mov    DWORD PTR [rbp-0x20],0x5
      }

      _GLIBCXX_ALWAYS_INLINE void
      store(__int_type __i, memory_order __m = memory_order_seq_cst) noexcept
      {
        memory_order __b = __m & __memory_order_mask;
  40057d:	8b 45 e0             	mov    eax,DWORD PTR [rbp-0x20]
  400580:	be ff ff 00 00       	mov    esi,0xffff
  400585:	89 c7                	mov    edi,eax
  400587:	e8 db 00 00 00       	call   400667 <std::operator&(std::memory_order, std::__memory_order_modifier)>
  40058c:	89 45 e4             	mov    DWORD PTR [rbp-0x1c],eax
	__glibcxx_assert(__b != memory_order_acquire);
	__glibcxx_assert(__b != memory_order_acq_rel);
	__glibcxx_assert(__b != memory_order_consume);

	__atomic_store_n(&_M_i, __i, __m);
  40058f:	8b 55 b0             	mov    edx,DWORD PTR [rbp-0x50]
  400592:	48 8d 45 a0          	lea    rax,[rbp-0x60]
  400596:	89 10                	mov    DWORD PTR [rax],edx
  400598:	0f ae f0             	mfence 
  40059b:	c7 45 b4 18 00 00 00 	mov    DWORD PTR [rbp-0x4c],0x18
  4005a2:	c7 45 dc 05 00 00 00 	mov    DWORD PTR [rbp-0x24],0x5
      }

      _GLIBCXX_ALWAYS_INLINE __int_type
      fetch_add(__int_type __i,
		memory_order __m = memory_order_seq_cst) noexcept
      { return __atomic_fetch_add(&_M_i, __i, __m); }
  4005a9:	8b 55 b4             	mov    edx,DWORD PTR [rbp-0x4c]
  4005ac:	48 8d 45 a0          	lea    rax,[rbp-0x60]
  4005b0:	f0 0f c1 10          	lock xadd DWORD PTR [rax],edx

	atomic.store(rand);

	atomic.fetch_add(24);

	int i = 1 + 24;
  4005b4:	c7 45 ac 19 00 00 00 	mov    DWORD PTR [rbp-0x54],0x19
  4005bb:	c7 45 b8 00 00 00 00 	mov    DWORD PTR [rbp-0x48],0x0
  4005c2:	c7 45 c4 05 00 00 00 	mov    DWORD PTR [rbp-0x3c],0x5

      _GLIBCXX_ALWAYS_INLINE bool
      compare_exchange_strong(__int_type& __i1, __int_type __i2,
			      memory_order __m = memory_order_seq_cst) noexcept
      {
	return compare_exchange_strong(__i1, __i2, __m,
  4005c9:	8b 45 c4             	mov    eax,DWORD PTR [rbp-0x3c]
  4005cc:	89 c7                	mov    edi,eax
  4005ce:	e8 ce 00 00 00       	call   4006a1 <std::__cmpexch_failure_order(std::memory_order)>
  4005d3:	89 c2                	mov    edx,eax
  4005d5:	48 8d 45 a0          	lea    rax,[rbp-0x60]
  4005d9:	48 89 45 e8          	mov    QWORD PTR [rbp-0x18],rax
  4005dd:	48 8d 45 ac          	lea    rax,[rbp-0x54]
  4005e1:	48 89 45 f0          	mov    QWORD PTR [rbp-0x10],rax
  4005e5:	8b 45 b8             	mov    eax,DWORD PTR [rbp-0x48]
  4005e8:	89 45 c8             	mov    DWORD PTR [rbp-0x38],eax
  4005eb:	8b 45 c4             	mov    eax,DWORD PTR [rbp-0x3c]
  4005ee:	89 45 cc             	mov    DWORD PTR [rbp-0x34],eax
  4005f1:	89 55 d0             	mov    DWORD PTR [rbp-0x30],edx

      _GLIBCXX_ALWAYS_INLINE bool
      compare_exchange_strong(__int_type& __i1, __int_type __i2,
			      memory_order __m1, memory_order __m2) noexcept
      {
        memory_order __b2 = __m2 & __memory_order_mask;
  4005f4:	8b 45 d0             	mov    eax,DWORD PTR [rbp-0x30]
  4005f7:	be ff ff 00 00       	mov    esi,0xffff
  4005fc:	89 c7                	mov    edi,eax
  4005fe:	e8 64 00 00 00       	call   400667 <std::operator&(std::memory_order, std::__memory_order_modifier)>
  400603:	89 45 d4             	mov    DWORD PTR [rbp-0x2c],eax
        memory_order __b1 = __m1 & __memory_order_mask;
  400606:	8b 45 cc             	mov    eax,DWORD PTR [rbp-0x34]
  400609:	be ff ff 00 00       	mov    esi,0xffff
  40060e:	89 c7                	mov    edi,eax
  400610:	e8 52 00 00 00       	call   400667 <std::operator&(std::memory_order, std::__memory_order_modifier)>
  400615:	89 45 d8             	mov    DWORD PTR [rbp-0x28],eax
	__glibcxx_assert(__b2 != memory_order_release);
	__glibcxx_assert(__b2 != memory_order_acq_rel);
	__glibcxx_assert(__b2 <= __b1);

	return __atomic_compare_exchange_n(&_M_i, &__i1, __i2, 0, __m1, __m2);
  400618:	8b 75 c8             	mov    esi,DWORD PTR [rbp-0x38]
  40061b:	48 8b 4d e8          	mov    rcx,QWORD PTR [rbp-0x18]
  40061f:	48 8b 55 f0          	mov    rdx,QWORD PTR [rbp-0x10]
  400623:	8b 02                	mov    eax,DWORD PTR [rdx]
  400625:	f0 0f b1 31          	lock cmpxchg DWORD PTR [rcx],esi
  400629:	0f 94 c1             	sete   cl
  40062c:	84 c9                	test   cl,cl
  40062e:	75 02                	jne    400632 <main+0xec>
  400630:	89 02                	mov    DWORD PTR [rdx],eax
  400632:	c7 45 bc 05 00 00 00 	mov    DWORD PTR [rbp-0x44],0x5
      }

      _GLIBCXX_ALWAYS_INLINE __int_type
      load(memory_order __m = memory_order_seq_cst) const noexcept
      {
       memory_order __b = __m & __memory_order_mask;
  400639:	8b 45 bc             	mov    eax,DWORD PTR [rbp-0x44]
  40063c:	be ff ff 00 00       	mov    esi,0xffff
  400641:	89 c7                	mov    edi,eax
  400643:	e8 1f 00 00 00       	call   400667 <std::operator&(std::memory_order, std::__memory_order_modifier)>
  400648:	89 45 c0             	mov    DWORD PTR [rbp-0x40],eax
	__glibcxx_assert(__b != memory_order_release);
	__glibcxx_assert(__b != memory_order_acq_rel);

	return __atomic_load_n(&_M_i, __m);
  40064b:	48 8d 45 a0          	lea    rax,[rbp-0x60]
  40064f:	8b 00                	mov    eax,DWORD PTR [rax]
	atomic.compare_exchange_strong(i, 0);

	return atomic.load();
}
  400651:	48 8b 4d f8          	mov    rcx,QWORD PTR [rbp-0x8]
  400655:	64 48 33 0c 25 28 00 	xor    rcx,QWORD PTR fs:0x28
  40065c:	00 00 
  40065e:	74 05                	je     400665 <main+0x11f>
  400660:	e8 bb fd ff ff       	call   400420 <__stack_chk_fail@plt>
  400665:	c9                   	leave  
  400666:	c3                   	ret    

0000000000400667 <std::operator&(std::memory_order, std::__memory_order_modifier)>:
    return memory_order(__m | int(__mod));
  }

  constexpr memory_order
  operator&(memory_order __m, __memory_order_modifier __mod)
  {
  400667:	55                   	push   rbp
  400668:	48 89 e5             	mov    rbp,rsp
  40066b:	89 7d fc             	mov    DWORD PTR [rbp-0x4],edi
  40066e:	89 75 f8             	mov    DWORD PTR [rbp-0x8],esi
    return memory_order(__m & int(__mod));
  400671:	8b 55 fc             	mov    edx,DWORD PTR [rbp-0x4]
  400674:	8b 45 f8             	mov    eax,DWORD PTR [rbp-0x8]
  400677:	21 d0                	and    eax,edx
  }
  400679:	5d                   	pop    rbp
  40067a:	c3                   	ret    

000000000040067b <std::__cmpexch_failure_order2(std::memory_order)>:

  // Drop release ordering as per [atomics.types.operations.req]/21
  constexpr memory_order
  __cmpexch_failure_order2(memory_order __m) noexcept
  {
  40067b:	55                   	push   rbp
  40067c:	48 89 e5             	mov    rbp,rsp
  40067f:	89 7d fc             	mov    DWORD PTR [rbp-0x4],edi
    return __m == memory_order_acq_rel ? memory_order_acquire
      : __m == memory_order_release ? memory_order_relaxed : __m;
  400682:	83 7d fc 04          	cmp    DWORD PTR [rbp-0x4],0x4
  400686:	74 12                	je     40069a <std::__cmpexch_failure_order2(std::memory_order)+0x1f>
  400688:	83 7d fc 03          	cmp    DWORD PTR [rbp-0x4],0x3
  40068c:	74 05                	je     400693 <std::__cmpexch_failure_order2(std::memory_order)+0x18>
  40068e:	8b 45 fc             	mov    eax,DWORD PTR [rbp-0x4]
  400691:	eb 0c                	jmp    40069f <std::__cmpexch_failure_order2(std::memory_order)+0x24>
  400693:	b8 00 00 00 00       	mov    eax,0x0
  400698:	eb 05                	jmp    40069f <std::__cmpexch_failure_order2(std::memory_order)+0x24>
  40069a:	b8 02 00 00 00       	mov    eax,0x2
  }
  40069f:	5d                   	pop    rbp
  4006a0:	c3                   	ret    

00000000004006a1 <std::__cmpexch_failure_order(std::memory_order)>:

  constexpr memory_order
  __cmpexch_failure_order(memory_order __m) noexcept
  {
  4006a1:	55                   	push   rbp
  4006a2:	48 89 e5             	mov    rbp,rsp
  4006a5:	53                   	push   rbx
  4006a6:	48 83 ec 18          	sub    rsp,0x18
  4006aa:	89 7d ec             	mov    DWORD PTR [rbp-0x14],edi
    return memory_order(__cmpexch_failure_order2(__m & __memory_order_mask)
  4006ad:	8b 45 ec             	mov    eax,DWORD PTR [rbp-0x14]
  4006b0:	be ff ff 00 00       	mov    esi,0xffff
  4006b5:	89 c7                	mov    edi,eax
  4006b7:	e8 ab ff ff ff       	call   400667 <std::operator&(std::memory_order, std::__memory_order_modifier)>
  4006bc:	89 c7                	mov    edi,eax
  4006be:	e8 b8 ff ff ff       	call   40067b <std::__cmpexch_failure_order2(std::memory_order)>
      | (__m & __memory_order_modifier_mask));
  4006c3:	89 c3                	mov    ebx,eax
  4006c5:	8b 45 ec             	mov    eax,DWORD PTR [rbp-0x14]
  4006c8:	be 00 00 ff ff       	mov    esi,0xffff0000
  4006cd:	89 c7                	mov    edi,eax
  4006cf:	e8 93 ff ff ff       	call   400667 <std::operator&(std::memory_order, std::__memory_order_modifier)>
  4006d4:	09 d8                	or     eax,ebx
  }
  4006d6:	48 83 c4 18          	add    rsp,0x18
  4006da:	5b                   	pop    rbx
  4006db:	5d                   	pop    rbp
  4006dc:	c3                   	ret    
  4006dd:	90                   	nop

00000000004006de <std::__atomic_base<int>::__atomic_base()>:
	sizeof(_ITp) > alignof(_ITp) ? sizeof(_ITp) : alignof(_ITp);

      alignas(_S_alignment) __int_type _M_i;

    public:
      __atomic_base() noexcept = default;
  4006de:	55                   	push   rbp
  4006df:	48 89 e5             	mov    rbp,rsp
  4006e2:	48 89 7d f8          	mov    QWORD PTR [rbp-0x8],rdi
  4006e6:	90                   	nop
  4006e7:	5d                   	pop    rbp
  4006e8:	c3                   	ret    
  4006e9:	90                   	nop

00000000004006ea <std::atomic<int>::atomic()>:
    struct atomic<int> : __atomic_base<int>
    {
      typedef int 			__integral_type;
      typedef __atomic_base<int> 		__base_type;

      atomic() noexcept = default;
  4006ea:	55                   	push   rbp
  4006eb:	48 89 e5             	mov    rbp,rsp
  4006ee:	48 83 ec 10          	sub    rsp,0x10
  4006f2:	48 89 7d f8          	mov    QWORD PTR [rbp-0x8],rdi
  4006f6:	48 8b 45 f8          	mov    rax,QWORD PTR [rbp-0x8]
  4006fa:	48 89 c7             	mov    rdi,rax
  4006fd:	e8 dc ff ff ff       	call   4006de <std::__atomic_base<int>::__atomic_base()>
  400702:	90                   	nop
  400703:	c9                   	leave  
  400704:	c3                   	ret    
  400705:	66 2e 0f 1f 84 00 00 	nop    WORD PTR cs:[rax+rax*1+0x0]
  40070c:	00 00 00 
  40070f:	90                   	nop

0000000000400710 <__libc_csu_init>:
  400710:	41 57                	push   r15
  400712:	41 56                	push   r14
  400714:	41 89 ff             	mov    r15d,edi
  400717:	41 55                	push   r13
  400719:	41 54                	push   r12
  40071b:	4c 8d 25 ee 06 20 00 	lea    r12,[rip+0x2006ee]        # 600e10 <__frame_dummy_init_array_entry>
  400722:	55                   	push   rbp
  400723:	48 8d 2d ee 06 20 00 	lea    rbp,[rip+0x2006ee]        # 600e18 <__init_array_end>
  40072a:	53                   	push   rbx
  40072b:	49 89 f6             	mov    r14,rsi
  40072e:	49 89 d5             	mov    r13,rdx
  400731:	4c 29 e5             	sub    rbp,r12
  400734:	48 83 ec 08          	sub    rsp,0x8
  400738:	48 c1 fd 03          	sar    rbp,0x3
  40073c:	e8 af fc ff ff       	call   4003f0 <_init>
  400741:	48 85 ed             	test   rbp,rbp
  400744:	74 20                	je     400766 <__libc_csu_init+0x56>
  400746:	31 db                	xor    ebx,ebx
  400748:	0f 1f 84 00 00 00 00 	nop    DWORD PTR [rax+rax*1+0x0]
  40074f:	00 
  400750:	4c 89 ea             	mov    rdx,r13
  400753:	4c 89 f6             	mov    rsi,r14
  400756:	44 89 ff             	mov    edi,r15d
  400759:	41 ff 14 dc          	call   QWORD PTR [r12+rbx*8]
  40075d:	48 83 c3 01          	add    rbx,0x1
  400761:	48 39 eb             	cmp    rbx,rbp
  400764:	75 ea                	jne    400750 <__libc_csu_init+0x40>
  400766:	48 83 c4 08          	add    rsp,0x8
  40076a:	5b                   	pop    rbx
  40076b:	5d                   	pop    rbp
  40076c:	41 5c                	pop    r12
  40076e:	41 5d                	pop    r13
  400770:	41 5e                	pop    r14
  400772:	41 5f                	pop    r15
  400774:	c3                   	ret    
  400775:	90                   	nop
  400776:	66 2e 0f 1f 84 00 00 	nop    WORD PTR cs:[rax+rax*1+0x0]
  40077d:	00 00 00 

0000000000400780 <__libc_csu_fini>:
  400780:	f3 c3                	repz ret 

Disassembly of section .fini:

0000000000400784 <_fini>:
  400784:	48 83 ec 08          	sub    rsp,0x8
  400788:	48 83 c4 08          	add    rsp,0x8
  40078c:	c3                   	ret    
